target datalayout = "e-m:e-p270:32:32-p271:32:32-p272:64:64-i64:64-i128:128-f80:128-n8:16:32:64-S128"
target triple = "x86_64-unknown-linux-gnu"

%"class.std::__cxx11::basic_string" = type { %"struct.std::__cxx11::basic_string<char>::_Alloc_hider", i64, %union.anon }
%"struct.std::__cxx11::basic_string<char>::_Alloc_hider" = type { ptr }
%union.anon = type { i64, [8 x i8] }
%"class.std::basic_string_view" = type { i64, ptr }
%"class.std::allocator" = type { i8 }
%"struct.std::__cxx11::basic_string<char>::__sv_wrapper" = type { %"class.std::basic_string_view" }

; Function Attrs: mustprogress uwtable
define linkonce_odr void @_ZNSt7__cxx1112basic_stringIcSt11char_traitsIcESaIcEEC2ISt17basic_string_viewIcS2_EvEERKT_RKS3_(ptr noundef nonnull align 8 dereferenceable(32) %this, ptr noundef nonnull align 8 dereferenceable(16) %__t, ptr noundef nonnull align 1 dereferenceable(1) %__a) unnamed_addr #4 comdat align 2 {
entry:
  %this.addr = alloca ptr, align 8
  %__t.addr = alloca ptr, align 8
  %__a.addr = alloca ptr, align 8
  %agg.tmp = alloca %"struct.std::__cxx11::basic_string<char>::__sv_wrapper", align 8
  %agg.tmp2 = alloca %"class.std::basic_string_view", align 8
  %agg.tmp3 = alloca %"class.std::basic_string_view", align 8
  store ptr %this, ptr %this.addr, align 8
  store ptr %__t, ptr %__t.addr, align 8
  store ptr %__a, ptr %__a.addr, align 8
  %this1 = load ptr, ptr %this.addr, align 8
  %0 = load ptr, ptr %__t.addr, align 8
  call void @llvm.memcpy.p0.p0.i64(ptr align 8 %agg.tmp3, ptr align 8 %0, i64 16, i1 false)
  %1 = getelementptr inbounds { i64, ptr }, ptr %agg.tmp3, i32 0, i32 0
  %2 = load i64, ptr %1, align 8
  %3 = getelementptr inbounds { i64, ptr }, ptr %agg.tmp3, i32 0, i32 1
  %4 = load ptr, ptr %3, align 8
  %call = call { i64, ptr } @_ZNSt7__cxx1112basic_stringIcSt11char_traitsIcESaIcEE17_S_to_string_viewESt17basic_string_viewIcS2_E(i64 %2, ptr %4) #3
  %5 = getelementptr inbounds { i64, ptr }, ptr %agg.tmp2, i32 0, i32 0
  %6 = extractvalue { i64, ptr } %call, 0
  store i64 %6, ptr %5, align 8
  %7 = getelementptr inbounds { i64, ptr }, ptr %agg.tmp2, i32 0, i32 1
  %8 = extractvalue { i64, ptr } %call, 1
  store ptr %8, ptr %7, align 8
  %9 = getelementptr inbounds { i64, ptr }, ptr %agg.tmp2, i32 0, i32 0
  %10 = load i64, ptr %9, align 8
  %11 = getelementptr inbounds { i64, ptr }, ptr %agg.tmp2, i32 0, i32 1
  %12 = load ptr, ptr %11, align 8
  call void @_ZNSt7__cxx1112basic_stringIcSt11char_traitsIcESaIcEE12__sv_wrapperC1ESt17basic_string_viewIcS2_E(ptr noundef nonnull align 8 dereferenceable(16) %agg.tmp, i64 %10, ptr %12) #3
  %13 = load ptr, ptr %__a.addr, align 8
  %14 = getelementptr inbounds { i64, ptr }, ptr %agg.tmp, i32 0, i32 0
  %15 = load i64, ptr %14, align 8
  %16 = getelementptr inbounds { i64, ptr }, ptr %agg.tmp, i32 0, i32 1
  %17 = load ptr, ptr %16, align 8
  call void @_ZNSt7__cxx1112basic_stringIcSt11char_traitsIcESaIcEEC2ENS4_12__sv_wrapperERKS3_(ptr noundef nonnull align 8 dereferenceable(32) %this1, i64 %15, ptr %17, ptr noundef nonnull align 1 dereferenceable(1) %13)
  ret void
}

; Function Attrs: mustprogress nounwind uwtable
define linkonce_odr noundef zeroext i1 @_ZNKSt17basic_string_viewIcSt11char_traitsIcEE5emptyEv(ptr noundef nonnull align 8 dereferenceable(16) %this) #5 comdat align 2 {
entry:
  %this.addr = alloca ptr, align 8
  store ptr %this, ptr %this.addr, align 8
  %this1 = load ptr, ptr %this.addr, align 8
  %_M_len = getelementptr inbounds %"class.std::basic_string_view", ptr %this1, i32 0, i32 0
  %0 = load i64, ptr %_M_len, align 8
  %cmp = icmp eq i64 %0, 0
  ret i1 %cmp
}

; Function Attrs: mustprogress nounwind uwtable
define linkonce_odr void @_ZNSt17basic_string_viewIcSt11char_traitsIcEEC2Ev(ptr noundef nonnull align 8 dereferenceable(16) %this) unnamed_addr #5 comdat align 2 {
entry:
  %this.addr = alloca ptr, align 8
  store ptr %this, ptr %this.addr, align 8
  %this1 = load ptr, ptr %this.addr, align 8
  %_M_len = getelementptr inbounds %"class.std::basic_string_view", ptr %this1, i32 0, i32 0
  store i64 0, ptr %_M_len, align 8
  %_M_str = getelementptr inbounds %"class.std::basic_string_view", ptr %this1, i32 0, i32 1
  store ptr null, ptr %_M_str, align 8
  ret void
}

; Function Attrs: mustprogress uwtable
define internal void @_ZN9grpc_core12_GLOBAL__N_119MaybeAddDefaultPortB5cxx11ESt17basic_string_viewIcSt11char_traitsIcEE(ptr noalias sret(%"class.std::__cxx11::basic_string") align 8 %agg.result, i64 %target.coerce0, ptr %target.coerce1) #4 personality ptr @__gxx_personality_v0 {
entry:
  %result.ptr = alloca ptr, align 8
  %target = alloca %"class.std::basic_string_view", align 8
  %host = alloca %"class.std::basic_string_view", align 8
  %port = alloca %"class.std::basic_string_view", align 8
  %agg.tmp = alloca %"class.std::basic_string_view", align 8
  %agg.tmp2 = alloca %"class.std::basic_string_view", align 8
  %ref.tmp = alloca %"class.std::allocator", align 1
  %exn.slot = alloca ptr, align 8
  %ehselector.slot = alloca i32, align 4
  store ptr %agg.result, ptr %result.ptr, align 8
  %0 = getelementptr inbounds { i64, ptr }, ptr %target, i32 0, i32 0
  store i64 %target.coerce0, ptr %0, align 8
  %1 = getelementptr inbounds { i64, ptr }, ptr %target, i32 0, i32 1
  store ptr %target.coerce1, ptr %1, align 8
  call void @_ZNSt17basic_string_viewIcSt11char_traitsIcEEC2Ev(ptr noundef nonnull align 8 dereferenceable(16) %host) #3
  call void @_ZNSt17basic_string_viewIcSt11char_traitsIcEEC2Ev(ptr noundef nonnull align 8 dereferenceable(16) %port) #3
  call void @llvm.memcpy.p0.p0.i64(ptr align 8 %agg.tmp, ptr align 8 %target, i64 16, i1 false)
  %2 = getelementptr inbounds { i64, ptr }, ptr %agg.tmp, i32 0, i32 0
  %3 = load i64, ptr %2, align 8
  %4 = getelementptr inbounds { i64, ptr }, ptr %agg.tmp, i32 0, i32 1
  %5 = load ptr, ptr %4, align 8
  %call = call noundef zeroext i1 @_ZN9grpc_core13SplitHostPortESt17basic_string_viewIcSt11char_traitsIcEEPS3_S4_(i64 %3, ptr %5, ptr noundef %host, ptr noundef %port)
  %call1 = call noundef zeroext i1 @_ZNKSt17basic_string_viewIcSt11char_traitsIcEE5emptyEv(ptr noundef nonnull align 8 dereferenceable(16) %port) #3
  br i1 %call1, label %if.then, label %if.end

if.then:                                          ; preds = %entry
  call void @llvm.memcpy.p0.p0.i64(ptr align 8 %agg.tmp2, ptr align 8 %host, i64 16, i1 false)
  %6 = getelementptr inbounds { i64, ptr }, ptr %agg.tmp2, i32 0, i32 0
  %7 = load i64, ptr %6, align 8
  %8 = getelementptr inbounds { i64, ptr }, ptr %agg.tmp2, i32 0, i32 1
  %9 = load ptr, ptr %8, align 8
  call void @_ZN9grpc_core12JoinHostPortB5cxx11ESt17basic_string_viewIcSt11char_traitsIcEEi(ptr sret(%"class.std::__cxx11::basic_string") align 8 %agg.result, i64 %7, ptr %9, i32 noundef 443)
  br label %return

if.end:                                           ; preds = %entry
  call void @_ZNSaIcEC1Ev(ptr noundef nonnull align 1 dereferenceable(1) %ref.tmp) #3
  invoke void @_ZNSt7__cxx1112basic_stringIcSt11char_traitsIcESaIcEEC2ISt17basic_string_viewIcS2_EvEERKT_RKS3_(ptr noundef nonnull align 8 dereferenceable(32) %agg.result, ptr noundef nonnull align 8 dereferenceable(16) %target, ptr noundef nonnull align 1 dereferenceable(1) %ref.tmp)
          to label %invoke.cont unwind label %lpad

invoke.cont:                                      ; preds = %if.end
  call void @_ZNSaIcED1Ev(ptr noundef nonnull align 1 dereferenceable(1) %ref.tmp) #3
  br label %return

lpad:                                             ; preds = %if.end
  %10 = landingpad { ptr, i32 }
          cleanup
  %11 = extractvalue { ptr, i32 } %10, 0
  store ptr %11, ptr %exn.slot, align 8
  %12 = extractvalue { ptr, i32 } %10, 1
  store i32 %12, ptr %ehselector.slot, align 4
  call void @_ZNSaIcED1Ev(ptr noundef nonnull align 1 dereferenceable(1) %ref.tmp) #3
  br label %eh.resume

return:                                           ; preds = %invoke.cont, %if.then
  ret void

eh.resume:                                        ; preds = %lpad
  %exn = load ptr, ptr %exn.slot, align 8
  %sel = load i32, ptr %ehselector.slot, align 4
  %lpad.val = insertvalue { ptr, i32 } poison, ptr %exn, 0
  %lpad.val3 = insertvalue { ptr, i32 } %lpad.val, i32 %sel, 1
  resume { ptr, i32 } %lpad.val3
}