; Function Attrs: mustprogress uwtable
define internal fastcc void @_ZN9grpc_core12_GLOBAL__N_119MaybeAddDefaultPortB5cxx11ESt17basic_string_viewIcSt11char_traitsIcEE(ptr noalias align 8 %agg.result, i64 %target.coerce0, ptr %target.coerce1) unnamed_addr #3 personality ptr @__gxx_personality_v0 {
entry:
  %agg.tmp.i = alloca %"struct.std::__cxx11::basic_string<char>::__sv_wrapper", align 8
  %host = alloca %"class.std::basic_string_view", align 8
  %port = alloca %"class.std::basic_string_view", align 8
  %ref.tmp = alloca %"class.std::allocator", align 1
  call void @llvm.memset.p0.i64(ptr noundef nonnull align 8 dereferenceable(16) %host, i8 0, i64 16, i1 false)
  call void @llvm.memset.p0.i64(ptr noundef nonnull align 8 dereferenceable(16) %port, i8 0, i64 16, i1 false)
  %call = call noundef zeroext i1 @_ZN9grpc_core13SplitHostPortESt17basic_string_viewIcSt11char_traitsIcEEPS3_S4_(i64 %target.coerce0, ptr %target.coerce1, ptr noundef nonnull %host, ptr noundef nonnull %port)
  %0 = load i64, ptr %port, align 8
  %cmp.i = icmp eq i64 %0, 0
  br i1 %cmp.i, label %if.then, label %if.end

if.then:                                          ; preds = %entry
  %agg.tmp2.sroa.0.0.copyload = load i64, ptr %host, align 8
  %agg.tmp2.sroa.2.0.host.sroa_idx = getelementptr inbounds i8, ptr %host, i64 8
  %agg.tmp2.sroa.2.0.copyload = load ptr, ptr %agg.tmp2.sroa.2.0.host.sroa_idx, align 8
  call void @_ZN9grpc_core12JoinHostPortB5cxx11ESt17basic_string_viewIcSt11char_traitsIcEEi(ptr sret(%"class.std::__cxx11::basic_string") align 8 %agg.result, i64 %agg.tmp2.sroa.0.0.copyload, ptr %agg.tmp2.sroa.2.0.copyload, i32 noundef 443)
  br label %return

if.end:                                           ; preds = %entry
  call void @_ZNSaIcEC1Ev(ptr noundef nonnull align 1 dereferenceable(1) %ref.tmp) #16
  call void @llvm.lifetime.start.p0(i64 16, ptr nonnull %agg.tmp.i)
  %call.i = call { i64, ptr } @_ZNSt7__cxx1112basic_stringIcSt11char_traitsIcESaIcEE17_S_to_string_viewESt17basic_string_viewIcS2_E(i64 %target.coerce0, ptr %target.coerce1) #16
  %1 = extractvalue { i64, ptr } %call.i, 0
  %2 = extractvalue { i64, ptr } %call.i, 1
  call void @_ZNSt7__cxx1112basic_stringIcSt11char_traitsIcESaIcEE12__sv_wrapperC1ESt17basic_string_viewIcS2_E(ptr noundef nonnull align 8 dereferenceable(16) %agg.tmp.i, i64 %1, ptr %2) #16
  %3 = load i64, ptr %agg.tmp.i, align 8
  %4 = getelementptr inbounds i8, ptr %agg.tmp.i, i64 8
  %5 = load ptr, ptr %4, align 8
  invoke void @_ZNSt7__cxx1112basic_stringIcSt11char_traitsIcESaIcEEC2ENS4_12__sv_wrapperERKS3_(ptr noundef nonnull align 8 dereferenceable(32) %agg.result, i64 %3, ptr %5, ptr noundef nonnull align 1 dereferenceable(1) %ref.tmp)
          to label %invoke.cont unwind label %lpad

invoke.cont:                                      ; preds = %if.end
  call void @llvm.lifetime.end.p0(i64 16, ptr nonnull %agg.tmp.i)
  call void @_ZNSaIcED1Ev(ptr noundef nonnull align 1 dereferenceable(1) %ref.tmp) #16
  br label %return

lpad:                                             ; preds = %if.end
  %6 = landingpad { ptr, i32 }
          cleanup
  call void @_ZNSaIcED1Ev(ptr noundef nonnull align 1 dereferenceable(1) %ref.tmp) #16
  resume { ptr, i32 } %6

return:                                           ; preds = %invoke.cont, %if.then
  ret void
}